target datalayout = "e-m:e-p270:32:32-p271:32:32-p272:64:64-i64:64-i128:128-f80:128-n8:16:32:64-S128"
target triple = "x86_64-pc-linux-gnu"

%struct._php_stream = type { ptr, ptr, %struct._php_stream_filter_chain, %struct._php_stream_filter_chain, ptr, ptr, %struct._zval_struct, i16, [16 x i8], i32, ptr, ptr, ptr, ptr, i64, ptr, i64, i64, i64, i64, ptr }
%struct._php_stream_filter_chain = type { ptr, ptr, ptr }
%struct._zval_struct = type { %union._zend_value, %union.anon, %union.anon.2 }
%union._zend_value = type { i64 }
%union.anon = type { i32 }
%union.anon.2 = type { i32 }
%struct.php_stream_temp_data = type { ptr, i64, i32, %struct._zval_struct, ptr }

; Function Attrs: nounwind uwtable
define internal i32 @php_stream_temp_set_option(ptr noundef %0, i32 noundef %1, i32 noundef %2, ptr noundef %3) #0 {
  %5 = alloca ptr, align 8
  %6 = alloca i32, align 4
  %7 = alloca ptr, align 8
  %8 = alloca i32, align 4
  %9 = alloca i32, align 4
  %10 = alloca ptr, align 8
  %11 = alloca ptr, align 8
  store ptr %0, ptr %7, align 8
  store i32 %1, ptr %8, align 4
  store i32 %2, ptr %9, align 4
  store ptr %3, ptr %10, align 8
  %12 = load ptr, ptr %7, align 8
  %13 = getelementptr inbounds %struct._php_stream, ptr %12, i32 0, i32 1
  %14 = load ptr, ptr %13, align 8
  store ptr %14, ptr %11, align 8
  %15 = load i32, ptr %8, align 4
  switch i32 %15, label %33 [
    i32 11, label %16
  ]

16:                                               ; preds = %4
  %17 = load ptr, ptr %11, align 8
  %18 = getelementptr inbounds %struct.php_stream_temp_data, ptr %17, i32 0, i32 3
  store ptr %18, ptr %5, align 8
  %19 = load ptr, ptr %5, align 8
  %20 = getelementptr inbounds %struct._zval_struct, ptr %19, i32 0, i32 1
  %21 = load i8, ptr %20, align 8
  %22 = zext i8 %21 to i32
  %23 = icmp ne i32 %22, 0
  br i1 %23, label %24, label %32

24:                                               ; preds = %16
  %25 = load ptr, ptr %10, align 8
  %26 = getelementptr inbounds %struct._zval_struct, ptr %25, i32 0, i32 0
  %27 = load ptr, ptr %26, align 8
  %28 = load ptr, ptr %11, align 8
  %29 = getelementptr inbounds %struct.php_stream_temp_data, ptr %28, i32 0, i32 3
  %30 = getelementptr inbounds %struct._zval_struct, ptr %29, i32 0, i32 0
  %31 = load ptr, ptr %30, align 8
  call void @zend_hash_copy(ptr noundef %27, ptr noundef %31, ptr noundef @zval_add_ref)
  br label %32

32:                                               ; preds = %24, %16
  store i32 0, ptr %6, align 4
  br label %47

33:                                               ; preds = %4
  %34 = load ptr, ptr %11, align 8
  %35 = getelementptr inbounds %struct.php_stream_temp_data, ptr %34, i32 0, i32 0
  %36 = load ptr, ptr %35, align 8
  %37 = icmp ne ptr %36, null
  br i1 %37, label %38, label %46

38:                                               ; preds = %33
  %39 = load ptr, ptr %11, align 8
  %40 = getelementptr inbounds %struct.php_stream_temp_data, ptr %39, i32 0, i32 0
  %41 = load ptr, ptr %40, align 8
  %42 = load i32, ptr %8, align 4
  %43 = load i32, ptr %9, align 4
  %44 = load ptr, ptr %10, align 8
  %45 = call i32 @_php_stream_set_option(ptr noundef %41, i32 noundef %42, i32 noundef %43, ptr noundef %44)
  store i32 %45, ptr %6, align 4
  br label %47

46:                                               ; preds = %33
  store i32 -2, ptr %6, align 4
  br label %47

47:                                               ; preds = %46, %38, %32
  %48 = load i32, ptr %6, align 4
  ret i32 %48
}