; Function Attrs: nounwind uwtable
define internal i32 @php_stream_temp_set_option(ptr nocapture noundef readonly %0, i32 noundef %1, i32 noundef %2, ptr noundef %3) #0 {
  %5 = getelementptr inbounds i8, ptr %0, i64 8
  %6 = load ptr, ptr %5, align 8
  %cond = icmp eq i32 %1, 11
  br i1 %cond, label %7, label %14

7:                                                ; preds = %4
  %8 = getelementptr inbounds i8, ptr %6, i64 32
  %9 = load i8, ptr %8, align 8
  %.not13 = icmp eq i8 %9, 0
  br i1 %.not13, label %18, label %10

10:                                               ; preds = %7
  %11 = getelementptr inbounds i8, ptr %6, i64 24
  %12 = load ptr, ptr %3, align 8
  %13 = load ptr, ptr %11, align 8
  tail call void @zend_hash_copy(ptr noundef %12, ptr noundef %13, ptr noundef nonnull @zval_add_ref) #20
  br label %18

14:                                               ; preds = %4
  %15 = load ptr, ptr %6, align 8
  %.not = icmp eq ptr %15, null
  br i1 %.not, label %18, label %16

16:                                               ; preds = %14
  %17 = tail call i32 @_php_stream_set_option(ptr noundef nonnull %15, i32 noundef %1, i32 noundef %2, ptr noundef %3) #20
  br label %18

18:                                               ; preds = %14, %7, %10, %16
  %.0 = phi i32 [ %17, %16 ], [ 0, %10 ], [ 0, %7 ], [ -2, %14 ]
  ret i32 %.0
}